; Function Attrs: nounwind uwtable
define hidden void @je_san_guard_pages(ptr noundef %0, ptr noundef readonly captures(none) %1, ptr noundef %2, ptr noundef %3, i1 noundef zeroext %4, i1 noundef zeroext %5, i1 noundef zeroext %6) local_unnamed_addr #0 {
  br i1 %6, label %8, label %san_find_guarded_addr.exit

8:                                                ; preds = %7
  tail call void @je_emap_deregister_boundary(ptr noundef %0, ptr noundef %3, ptr noundef %2) #4
  br label %san_find_guarded_addr.exit

san_find_guarded_addr.exit:                       ; preds = %8, %7
  %9 = getelementptr i8, ptr %2, i64 16
  %.val = load i64, ptr %9, align 8, !tbaa !4
  %10 = and i64 %.val, -4096
  %brmerge.demorgan = and i1 %4, %5
  %.v = select i1 %brmerge.demorgan, i64 -8192, i64 -4096
  %11 = add i64 %10, %.v
  %12 = getelementptr i8, ptr %2, i64 8
  %.val23 = load ptr, ptr %12, align 8, !tbaa !7
  %13 = ptrtoint ptr %.val23 to i64
  %14 = and i64 %13, 4095
  %15 = sub nsw i64 0, %14
  %16 = getelementptr inbounds i8, ptr %.val23, i64 %15
  %.0.idx = select i1 %4, i64 4096, i64 0
  %.0 = getelementptr inbounds nuw i8, ptr %16, i64 %.0.idx
  %17 = getelementptr inbounds nuw i8, ptr %1, i64 8
  %18 = load atomic i64, ptr %17 acquire, align 8
  %.not = icmp eq i64 %18, ptrtoint (ptr @je_ehooks_default_extent_hooks to i64)
  br i1 %.not, label %19, label %ehooks_guard.exit

19:                                               ; preds = %san_find_guarded_addr.exit
  %20 = getelementptr inbounds nuw i8, ptr %.0, i64 %11
  %storemerge.i = select i1 %5, ptr %20, ptr null
  %.028 = select i1 %4, ptr %16, ptr null
  tail call void @je_ehooks_default_guard_impl(ptr noundef %.028, ptr noundef %storemerge.i) #4
  br label %ehooks_guard.exit

ehooks_guard.exit:                                ; preds = %san_find_guarded_addr.exit, %19
  %21 = load i64, ptr %9, align 8, !tbaa !4
  %22 = and i64 %21, 4095
  %23 = or disjoint i64 %22, %11
  store i64 %23, ptr %9, align 8, !tbaa !4
  store ptr %.0, ptr %12, align 8, !tbaa !7
  %24 = load i64, ptr %2, align 8, !tbaa !12
  %25 = or i64 %24, 65536
  store i64 %25, ptr %2, align 8, !tbaa !12
  br i1 %6, label %26, label %28

26:                                               ; preds = %ehooks_guard.exit
  %27 = tail call zeroext i1 @je_emap_register_boundary(ptr noundef %0, ptr noundef %3, ptr noundef nonnull %2, i32 noundef 232, i1 noundef zeroext false) #4
  br label %28

28:                                               ; preds = %26, %ehooks_guard.exit
  ret void
}